target datalayout = "e-m:e-p270:32:32-p271:32:32-p272:64:64-i64:64-i128:128-f80:128-n8:16:32:64-S128"
target triple = "x86_64-unknown-linux-gnu"

%"class.OpenColorIO_v2_4dev::CTFVersion" = type { i32, i32, i32 }

; Function Attrs: mustprogress nounwind uwtable
define hidden noundef zeroext i1 @_ZNK19OpenColorIO_v2_4dev10CTFVersionltERKS0_(ptr noundef nonnull align 4 dereferenceable(12) %this, ptr noundef nonnull align 4 dereferenceable(12) %rhs) #4 align 2 {
entry:
  %retval = alloca i1, align 1
  %this.addr = alloca ptr, align 8
  %rhs.addr = alloca ptr, align 8
  store ptr %this, ptr %this.addr, align 8
  store ptr %rhs, ptr %rhs.addr, align 8
  %this1 = load ptr, ptr %this.addr, align 8
  %0 = load ptr, ptr %rhs.addr, align 8
  %cmp = icmp eq ptr %this1, %0
  br i1 %cmp, label %if.then, label %if.end

if.then:                                          ; preds = %entry
  store i1 false, ptr %retval, align 1
  br label %return

if.end:                                           ; preds = %entry
  %m_major = getelementptr inbounds %"class.OpenColorIO_v2_4dev::CTFVersion", ptr %this1, i32 0, i32 0
  %1 = load i32, ptr %m_major, align 4
  %2 = load ptr, ptr %rhs.addr, align 8
  %m_major2 = getelementptr inbounds %"class.OpenColorIO_v2_4dev::CTFVersion", ptr %2, i32 0, i32 0
  %3 = load i32, ptr %m_major2, align 4
  %cmp3 = icmp ult i32 %1, %3
  br i1 %cmp3, label %if.then4, label %if.else

if.then4:                                         ; preds = %if.end
  store i1 true, ptr %retval, align 1
  br label %return

if.else:                                          ; preds = %if.end
  %m_major5 = getelementptr inbounds %"class.OpenColorIO_v2_4dev::CTFVersion", ptr %this1, i32 0, i32 0
  %4 = load i32, ptr %m_major5, align 4
  %5 = load ptr, ptr %rhs.addr, align 8
  %m_major6 = getelementptr inbounds %"class.OpenColorIO_v2_4dev::CTFVersion", ptr %5, i32 0, i32 0
  %6 = load i32, ptr %m_major6, align 4
  %cmp7 = icmp ugt i32 %4, %6
  br i1 %cmp7, label %if.then8, label %if.else9

if.then8:                                         ; preds = %if.else
  store i1 false, ptr %retval, align 1
  br label %return

if.else9:                                         ; preds = %if.else
  %m_minor = getelementptr inbounds %"class.OpenColorIO_v2_4dev::CTFVersion", ptr %this1, i32 0, i32 1
  %7 = load i32, ptr %m_minor, align 4
  %8 = load ptr, ptr %rhs.addr, align 8
  %m_minor10 = getelementptr inbounds %"class.OpenColorIO_v2_4dev::CTFVersion", ptr %8, i32 0, i32 1
  %9 = load i32, ptr %m_minor10, align 4
  %cmp11 = icmp ult i32 %7, %9
  br i1 %cmp11, label %if.then12, label %if.else13

if.then12:                                        ; preds = %if.else9
  store i1 true, ptr %retval, align 1
  br label %return

if.else13:                                        ; preds = %if.else9
  %m_minor14 = getelementptr inbounds %"class.OpenColorIO_v2_4dev::CTFVersion", ptr %this1, i32 0, i32 1
  %10 = load i32, ptr %m_minor14, align 4
  %11 = load ptr, ptr %rhs.addr, align 8
  %m_minor15 = getelementptr inbounds %"class.OpenColorIO_v2_4dev::CTFVersion", ptr %11, i32 0, i32 1
  %12 = load i32, ptr %m_minor15, align 4
  %cmp16 = icmp ugt i32 %10, %12
  br i1 %cmp16, label %if.then17, label %if.else18

if.then17:                                        ; preds = %if.else13
  store i1 false, ptr %retval, align 1
  br label %return

if.else18:                                        ; preds = %if.else13
  %m_revision = getelementptr inbounds %"class.OpenColorIO_v2_4dev::CTFVersion", ptr %this1, i32 0, i32 2
  %13 = load i32, ptr %m_revision, align 4
  %14 = load ptr, ptr %rhs.addr, align 8
  %m_revision19 = getelementptr inbounds %"class.OpenColorIO_v2_4dev::CTFVersion", ptr %14, i32 0, i32 2
  %15 = load i32, ptr %m_revision19, align 4
  %cmp20 = icmp ult i32 %13, %15
  br i1 %cmp20, label %if.then21, label %if.end22

if.then21:                                        ; preds = %if.else18
  store i1 true, ptr %retval, align 1
  br label %return

if.end22:                                         ; preds = %if.else18
  store i1 false, ptr %retval, align 1
  br label %return

return:                                           ; preds = %if.end22, %if.then21, %if.then17, %if.then12, %if.then8, %if.then4, %if.then
  %16 = load i1, ptr %retval, align 1
  ret i1 %16
}

; Function Attrs: mustprogress nounwind uwtable
define hidden noundef zeroext i1 @_ZNK19OpenColorIO_v2_4dev10CTFVersioneqERKS0_(ptr noundef nonnull align 4 dereferenceable(12) %this, ptr noundef nonnull align 4 dereferenceable(12) %rhs) #4 align 2 {
entry:
  %retval = alloca i1, align 1
  %this.addr = alloca ptr, align 8
  %rhs.addr = alloca ptr, align 8
  store ptr %this, ptr %this.addr, align 8
  store ptr %rhs, ptr %rhs.addr, align 8
  %this1 = load ptr, ptr %this.addr, align 8
  %0 = load ptr, ptr %rhs.addr, align 8
  %cmp = icmp eq ptr %this1, %0
  br i1 %cmp, label %if.then, label %if.end

if.then:                                          ; preds = %entry
  store i1 true, ptr %retval, align 1
  br label %return

if.end:                                           ; preds = %entry
  %m_major = getelementptr inbounds %"class.OpenColorIO_v2_4dev::CTFVersion", ptr %this1, i32 0, i32 0
  %1 = load i32, ptr %m_major, align 4
  %2 = load ptr, ptr %rhs.addr, align 8
  %m_major2 = getelementptr inbounds %"class.OpenColorIO_v2_4dev::CTFVersion", ptr %2, i32 0, i32 0
  %3 = load i32, ptr %m_major2, align 4
  %cmp3 = icmp eq i32 %1, %3
  br i1 %cmp3, label %land.lhs.true, label %land.end

land.lhs.true:                                    ; preds = %if.end
  %m_minor = getelementptr inbounds %"class.OpenColorIO_v2_4dev::CTFVersion", ptr %this1, i32 0, i32 1
  %4 = load i32, ptr %m_minor, align 4
  %5 = load ptr, ptr %rhs.addr, align 8
  %m_minor4 = getelementptr inbounds %"class.OpenColorIO_v2_4dev::CTFVersion", ptr %5, i32 0, i32 1
  %6 = load i32, ptr %m_minor4, align 4
  %cmp5 = icmp eq i32 %4, %6
  br i1 %cmp5, label %land.rhs, label %land.end

land.rhs:                                         ; preds = %land.lhs.true
  %m_revision = getelementptr inbounds %"class.OpenColorIO_v2_4dev::CTFVersion", ptr %this1, i32 0, i32 2
  %7 = load i32, ptr %m_revision, align 4
  %8 = load ptr, ptr %rhs.addr, align 8
  %m_revision6 = getelementptr inbounds %"class.OpenColorIO_v2_4dev::CTFVersion", ptr %8, i32 0, i32 2
  %9 = load i32, ptr %m_revision6, align 4
  %cmp7 = icmp eq i32 %7, %9
  br label %land.end

land.end:                                         ; preds = %land.rhs, %land.lhs.true, %if.end
  %10 = phi i1 [ false, %land.lhs.true ], [ false, %if.end ], [ %cmp7, %land.rhs ]
  store i1 %10, ptr %retval, align 1
  br label %return

return:                                           ; preds = %land.end, %if.then
  %11 = load i1, ptr %retval, align 1
  ret i1 %11
}

; Function Attrs: mustprogress uwtable
define hidden noundef zeroext i1 @_ZNK19OpenColorIO_v2_4dev10CTFVersionleERKS0_(ptr noundef nonnull align 4 dereferenceable(12) %this, ptr noundef nonnull align 4 dereferenceable(12) %rhs) #5 align 2 {
entry:
  %retval = alloca i1, align 1
  %this.addr = alloca ptr, align 8
  %rhs.addr = alloca ptr, align 8
  store ptr %this, ptr %this.addr, align 8
  store ptr %rhs, ptr %rhs.addr, align 8
  %this1 = load ptr, ptr %this.addr, align 8
  %0 = load ptr, ptr %rhs.addr, align 8
  %call = call noundef zeroext i1 @_ZNK19OpenColorIO_v2_4dev10CTFVersioneqERKS0_(ptr noundef nonnull align 4 dereferenceable(12) %this1, ptr noundef nonnull align 4 dereferenceable(12) %0)
  br i1 %call, label %if.then, label %if.end

if.then:                                          ; preds = %entry
  store i1 true, ptr %retval, align 1
  br label %return

if.end:                                           ; preds = %entry
  %1 = load ptr, ptr %rhs.addr, align 8
  %call2 = call noundef zeroext i1 @_ZNK19OpenColorIO_v2_4dev10CTFVersionltERKS0_(ptr noundef nonnull align 4 dereferenceable(12) %this1, ptr noundef nonnull align 4 dereferenceable(12) %1)
  store i1 %call2, ptr %retval, align 1
  br label %return

return:                                           ; preds = %if.end, %if.then
  %2 = load i1, ptr %retval, align 1
  ret i1 %2
}

; Function Attrs: mustprogress uwtable
define hidden noundef zeroext i1 @_ZNK19OpenColorIO_v2_4dev10CTFVersiongeERKS0_(ptr noundef nonnull align 4 dereferenceable(12) %this, ptr noundef nonnull align 4 dereferenceable(12) %rhs) #5 align 2 {
entry:
  %this.addr = alloca ptr, align 8
  %rhs.addr = alloca ptr, align 8
  store ptr %this, ptr %this.addr, align 8
  store ptr %rhs, ptr %rhs.addr, align 8
  %this1 = load ptr, ptr %this.addr, align 8
  %0 = load ptr, ptr %rhs.addr, align 8
  %call = call noundef zeroext i1 @_ZNK19OpenColorIO_v2_4dev10CTFVersionleERKS0_(ptr noundef nonnull align 4 dereferenceable(12) %0, ptr noundef nonnull align 4 dereferenceable(12) %this1)
  ret i1 %call
}