; Function Attrs: mustprogress nofree norecurse nosync nounwind willreturn memory(argmem: read) uwtable
define hidden noundef zeroext i1 @_ZNK19OpenColorIO_v2_4dev10CTFVersiongeERKS0_(ptr noundef nonnull readonly align 4 dereferenceable(12) %this, ptr noundef nonnull readonly align 4 dereferenceable(12) %rhs) local_unnamed_addr #7 align 2 {
entry:
  %cmp.i.i = icmp eq ptr %rhs, %this
  br i1 %cmp.i.i, label %_ZNK19OpenColorIO_v2_4dev10CTFVersionleERKS0_.exit, label %if.end.i.i

if.end.i.i:                                       ; preds = %entry
  %0 = load i32, ptr %rhs, align 4
  %1 = load i32, ptr %this, align 4
  %cmp3.i.i = icmp eq i32 %0, %1
  br i1 %cmp3.i.i, label %land.lhs.true.i.i, label %if.end.i3.i

land.lhs.true.i.i:                                ; preds = %if.end.i.i
  %m_minor.i.i = getelementptr inbounds i8, ptr %rhs, i64 4
  %2 = load i32, ptr %m_minor.i.i, align 4
  %m_minor4.i.i = getelementptr inbounds i8, ptr %this, i64 4
  %3 = load i32, ptr %m_minor4.i.i, align 4
  %cmp5.i.i = icmp eq i32 %2, %3
  br i1 %cmp5.i.i, label %_ZNK19OpenColorIO_v2_4dev10CTFVersioneqERKS0_.exit.i, label %if.end.i3.i

_ZNK19OpenColorIO_v2_4dev10CTFVersioneqERKS0_.exit.i: ; preds = %land.lhs.true.i.i
  %m_revision.i.i = getelementptr inbounds i8, ptr %rhs, i64 8
  %4 = load i32, ptr %m_revision.i.i, align 4
  %m_revision6.i.i = getelementptr inbounds i8, ptr %this, i64 8
  %5 = load i32, ptr %m_revision6.i.i, align 4
  %cmp7.i.i = icmp eq i32 %4, %5
  br i1 %cmp7.i.i, label %_ZNK19OpenColorIO_v2_4dev10CTFVersionleERKS0_.exit, label %if.else.i.i

if.end.i3.i:                                      ; preds = %land.lhs.true.i.i, %if.end.i.i
  %cmp3.i4.old.i = icmp ult i32 %0, %1
  br i1 %cmp3.i4.old.i, label %_ZNK19OpenColorIO_v2_4dev10CTFVersionleERKS0_.exit, label %if.else.i.i

if.else.i.i:                                      ; preds = %if.end.i3.i, %_ZNK19OpenColorIO_v2_4dev10CTFVersioneqERKS0_.exit.i
  %cmp7.i5.i = icmp ugt i32 %0, %1
  br i1 %cmp7.i5.i, label %_ZNK19OpenColorIO_v2_4dev10CTFVersionleERKS0_.exit, label %if.else9.i.i

if.else9.i.i:                                     ; preds = %if.else.i.i
  %m_minor.i6.i = getelementptr inbounds i8, ptr %rhs, i64 4
  %6 = load i32, ptr %m_minor.i6.i, align 4
  %m_minor10.i.i = getelementptr inbounds i8, ptr %this, i64 4
  %7 = load i32, ptr %m_minor10.i.i, align 4
  %cmp11.i.i = icmp ult i32 %6, %7
  br i1 %cmp11.i.i, label %_ZNK19OpenColorIO_v2_4dev10CTFVersionleERKS0_.exit, label %if.else13.i.i

if.else13.i.i:                                    ; preds = %if.else9.i.i
  %cmp16.i.i = icmp ugt i32 %6, %7
  br i1 %cmp16.i.i, label %_ZNK19OpenColorIO_v2_4dev10CTFVersionleERKS0_.exit, label %if.else18.i.i

if.else18.i.i:                                    ; preds = %if.else13.i.i
  %m_revision.i7.i = getelementptr inbounds i8, ptr %rhs, i64 8
  %8 = load i32, ptr %m_revision.i7.i, align 4
  %m_revision19.i.i = getelementptr inbounds i8, ptr %this, i64 8
  %9 = load i32, ptr %m_revision19.i.i, align 4
  %cmp20.i.i = icmp ult i32 %8, %9
  br label %_ZNK19OpenColorIO_v2_4dev10CTFVersionleERKS0_.exit

_ZNK19OpenColorIO_v2_4dev10CTFVersionleERKS0_.exit: ; preds = %entry, %_ZNK19OpenColorIO_v2_4dev10CTFVersioneqERKS0_.exit.i, %if.end.i3.i, %if.else.i.i, %if.else9.i.i, %if.else13.i.i, %if.else18.i.i
  %retval.0.i = phi i1 [ true, %_ZNK19OpenColorIO_v2_4dev10CTFVersioneqERKS0_.exit.i ], [ true, %if.end.i3.i ], [ false, %if.else.i.i ], [ true, %if.else9.i.i ], [ false, %if.else13.i.i ], [ %cmp20.i.i, %if.else18.i.i ], [ true, %entry ]
  ret i1 %retval.0.i
}